; Function Attrs: nounwind uwtable
define internal void @get_agg_combine_expr(ptr noundef %0, ptr noundef %1, ptr noundef %2) #0 {
  %4 = load i32, ptr %0, align 4
  %5 = icmp eq i32 %4, 9
  br i1 %5, label %9, label %6

6:                                                ; preds = %3
  %7 = tail call zeroext i1 @errstart_cold(i32 noundef 21, ptr noundef null) #12
  tail call void @llvm.assume(i1 %7)
  %8 = tail call i32 (ptr, ...) @errmsg_internal(ptr noundef nonnull @.str.197) #11
  tail call void @errfinish(ptr noundef nonnull @.str.2, i32 noundef 10946, ptr noundef nonnull @__func__.get_agg_combine_expr) #11
  unreachable

9:                                                ; preds = %3
  tail call fastcc void @get_agg_expr_helper(ptr noundef nonnull %0, ptr noundef %1, ptr noundef %2, ptr noundef null, ptr noundef null, i1 noundef zeroext false)
  ret void
}